; Function Attrs: mustprogress nofree norecurse nosync nounwind willreturn memory(argmem: readwrite) uwtable
define range(i32 -173, 2) i32 @wolfSSL_SetEnableDhKeyTest(ptr noundef captures(address_is_null) %0, i32 noundef %1) local_unnamed_addr #4 {
  %3 = icmp eq ptr %0, null
  br i1 %3, label %7, label %.sink.split

.sink.split:                                      ; preds = %2
  %.not = icmp eq i32 %1, 0
  %4 = getelementptr inbounds nuw i8, ptr %0, i64 1024
  %5 = load i64, ptr %4, align 8
  %6 = and i64 %5, -1125899906842625
  %masksel = select i1 %.not, i64 0, i64 1125899906842624
  %.sink = or disjoint i64 %6, %masksel
  store i64 %.sink, ptr %4, align 8
  br label %7

7:                                                ; preds = %.sink.split, %2
  %.0 = phi i32 [ -173, %2 ], [ 1, %.sink.split ]
  ret i32 %.0
}